target datalayout = "e-m:e-p270:32:32-p271:32:32-p272:64:64-i64:64-i128:128-f80:128-n8:16:32:64-S128"
target triple = "x86_64-pc-linux-gnu"

%"union.llvm::object::DataRefImpl" = type { i64 }
%"class.llvm::iterator_range.28" = type { %"class.llvm::object::symbol_iterator", %"class.llvm::object::symbol_iterator" }
%"class.llvm::object::symbol_iterator" = type { %"class.llvm::object::content_iterator.29" }
%"class.llvm::object::content_iterator.29" = type { %"class.llvm::object::BasicSymbolRef" }
%"class.llvm::object::BasicSymbolRef" = type { %"union.llvm::object::DataRefImpl", ptr }
%"class.llvm::object::SymbolRef" = type { %"class.llvm::object::BasicSymbolRef" }

; Function Attrs: mustprogress nounwind uwtable
define linkonce_odr hidden noundef ptr @_ZN4llvm16cast_convert_valINS_6object10ObjectFileEPKNS1_12SymbolicFileES5_E4doitES5_(ptr noundef %0) #0 comdat align 2 {
  %2 = alloca ptr, align 8
  store ptr %0, ptr %2, align 8
  %3 = load ptr, ptr %2, align 8
  ret ptr %3
}

; Function Attrs: mustprogress nounwind uwtable
define linkonce_odr hidden void @_ZN4llvm6object14BasicSymbolRefC2ENS0_11DataRefImplEPKNS0_12SymbolicFileE(ptr noundef nonnull align 8 dereferenceable(16) %0, i64 %1, ptr noundef %2) unnamed_addr #0 comdat align 2 {
  %4 = alloca %"union.llvm::object::DataRefImpl", align 8
  %5 = alloca ptr, align 8
  %6 = alloca ptr, align 8
  %7 = getelementptr inbounds nuw %"union.llvm::object::DataRefImpl", ptr %4, i32 0, i32 0
  store i64 %1, ptr %7, align 8
  store ptr %0, ptr %5, align 8
  store ptr %2, ptr %6, align 8
  %8 = load ptr, ptr %5, align 8
  %9 = getelementptr inbounds nuw %"class.llvm::object::BasicSymbolRef", ptr %8, i32 0, i32 0
  call void @llvm.memcpy.p0.p0.i64(ptr align 8 %9, ptr align 8 %4, i64 8, i1 false)
  %10 = getelementptr inbounds nuw %"class.llvm::object::BasicSymbolRef", ptr %8, i32 0, i32 1
  %11 = load ptr, ptr %6, align 8
  store ptr %11, ptr %10, align 8
  ret void
}

; Function Attrs: mustprogress nounwind uwtable
define linkonce_odr hidden noundef ptr @_ZN4llvm8CastInfoINS_6object10ObjectFileEPKNS1_12SymbolicFileEvE6doCastERKS5_(ptr noundef nonnull align 8 dereferenceable(8) %0) #0 comdat align 2 {
  %2 = alloca ptr, align 8
  store ptr %0, ptr %2, align 8
  %3 = load ptr, ptr %2, align 8
  %4 = load ptr, ptr %3, align 8
  %5 = call noundef ptr @_ZN4llvm16cast_convert_valINS_6object10ObjectFileEPKNS1_12SymbolicFileES5_E4doitES5_(ptr noundef %4)
  ret ptr %5
}

; Function Attrs: mustprogress nounwind uwtable
define linkonce_odr hidden noundef zeroext i1 @_ZN4llvm6objecteqERKNS0_11DataRefImplES3_(ptr noundef nonnull align 8 dereferenceable(8) %0, ptr noundef nonnull align 8 dereferenceable(8) %1) #0 comdat {
  %3 = alloca ptr, align 8
  %4 = alloca ptr, align 8
  store ptr %0, ptr %3, align 8
  store ptr %1, ptr %4, align 8
  %5 = load ptr, ptr %3, align 8
  %6 = load ptr, ptr %4, align 8
  %7 = call i32 @memcmp(ptr noundef %5, ptr noundef %6, i64 noundef 8) #17
  %8 = icmp eq i32 %7, 0
  ret i1 %8
}

; Function Attrs: mustprogress nounwind uwtable
define linkonce_odr hidden void @_ZN4llvm6object16content_iteratorINS0_14BasicSymbolRefEEC2ES2_(ptr noundef nonnull align 8 dereferenceable(16) %0, i64 %1, ptr %2) unnamed_addr #0 comdat align 2 {
  %4 = alloca %"class.llvm::object::BasicSymbolRef", align 8
  %5 = alloca ptr, align 8
  %6 = getelementptr inbounds nuw { i64, ptr }, ptr %4, i32 0, i32 0
  store i64 %1, ptr %6, align 8
  %7 = getelementptr inbounds nuw { i64, ptr }, ptr %4, i32 0, i32 1
  store ptr %2, ptr %7, align 8
  store ptr %0, ptr %5, align 8
  %8 = load ptr, ptr %5, align 8
  %9 = getelementptr inbounds nuw %"class.llvm::object::content_iterator.29", ptr %8, i32 0, i32 0
  call void @llvm.memcpy.p0.p0.i64(ptr align 8 %9, ptr align 8 %4, i64 16, i1 false)
  ret void
}

; Function Attrs: mustprogress nounwind uwtable
define linkonce_odr hidden void @_ZN4llvm6object9SymbolRefC2ENS0_11DataRefImplEPKNS0_10ObjectFileE(ptr noundef nonnull align 8 dereferenceable(16) %0, i64 %1, ptr noundef %2) unnamed_addr #0 comdat align 2 {
  %4 = alloca %"union.llvm::object::DataRefImpl", align 8
  %5 = alloca ptr, align 8
  %6 = alloca ptr, align 8
  %7 = alloca %"union.llvm::object::DataRefImpl", align 8
  %8 = getelementptr inbounds nuw %"union.llvm::object::DataRefImpl", ptr %4, i32 0, i32 0
  store i64 %1, ptr %8, align 8
  store ptr %0, ptr %5, align 8
  store ptr %2, ptr %6, align 8
  %9 = load ptr, ptr %5, align 8
  call void @llvm.memcpy.p0.p0.i64(ptr align 8 %7, ptr align 8 %4, i64 8, i1 false)
  %10 = load ptr, ptr %6, align 8
  %11 = getelementptr inbounds nuw %"union.llvm::object::DataRefImpl", ptr %7, i32 0, i32 0
  %12 = load i64, ptr %11, align 8
  call void @_ZN4llvm6object14BasicSymbolRefC2ENS0_11DataRefImplEPKNS0_12SymbolicFileE(ptr noundef nonnull align 8 dereferenceable(16) %9, i64 %12, ptr noundef %10)
  ret void
}

; Function Attrs: mustprogress nounwind uwtable
define linkonce_odr hidden noundef ptr @_ZN4llvm4castINS_6object10ObjectFileEKNS1_12SymbolicFileEEEDcPT0_(ptr noundef %0) #0 comdat {
  %2 = alloca ptr, align 8
  store ptr %0, ptr %2, align 8
  %3 = call noundef ptr @_ZN4llvm8CastInfoINS_6object10ObjectFileEPKNS1_12SymbolicFileEvE6doCastERKS5_(ptr noundef nonnull align 8 dereferenceable(8) %2)
  ret ptr %3
}

; Function Attrs: mustprogress nounwind uwtable
define linkonce_odr hidden noundef ptr @_ZNK4llvm6object14BasicSymbolRef9getObjectEv(ptr noundef nonnull align 8 dereferenceable(16) %0) #0 comdat align 2 {
  %2 = alloca ptr, align 8
  store ptr %0, ptr %2, align 8
  %3 = load ptr, ptr %2, align 8
  %4 = getelementptr inbounds nuw %"class.llvm::object::BasicSymbolRef", ptr %3, i32 0, i32 1
  %5 = load ptr, ptr %4, align 8
  ret ptr %5
}

; Function Attrs: mustprogress nounwind uwtable
define linkonce_odr hidden i64 @_ZNK4llvm6object14BasicSymbolRef17getRawDataRefImplEv(ptr noundef nonnull align 8 dereferenceable(16) %0) #0 comdat align 2 {
  %2 = alloca %"union.llvm::object::DataRefImpl", align 8
  %3 = alloca ptr, align 8
  store ptr %0, ptr %3, align 8
  %4 = load ptr, ptr %3, align 8
  %5 = getelementptr inbounds nuw %"class.llvm::object::BasicSymbolRef", ptr %4, i32 0, i32 0
  call void @llvm.memcpy.p0.p0.i64(ptr align 8 %2, ptr align 8 %5, i64 8, i1 false)
  %6 = getelementptr inbounds nuw %"union.llvm::object::DataRefImpl", ptr %2, i32 0, i32 0
  %7 = load i64, ptr %6, align 8
  ret i64 %7
}

; Function Attrs: mustprogress nounwind uwtable
define linkonce_odr hidden noundef ptr @_ZNK4llvm6object16content_iteratorINS0_14BasicSymbolRefEEptEv(ptr noundef nonnull align 8 dereferenceable(16) %0) #0 comdat align 2 {
  %2 = alloca ptr, align 8
  store ptr %0, ptr %2, align 8
  %3 = load ptr, ptr %2, align 8
  %4 = getelementptr inbounds nuw %"class.llvm::object::content_iterator.29", ptr %3, i32 0, i32 0
  ret ptr %4
}

; Function Attrs: mustprogress nounwind uwtable
define linkonce_odr hidden noundef ptr @_ZN4llvm16cast_convert_valINS_6object10ObjectFileEPNS1_6BinaryES4_E4doitEPKS3_(ptr noundef %0) #0 comdat align 2 {
  %2 = alloca ptr, align 8
  store ptr %0, ptr %2, align 8
  %3 = load ptr, ptr %2, align 8
  ret ptr %3
}

; Function Attrs: mustprogress nounwind uwtable
define linkonce_odr hidden noundef zeroext i1 @_ZNK4llvm6object14BasicSymbolRefeqERKS1_(ptr noundef nonnull align 8 dereferenceable(16) %0, ptr noundef nonnull align 8 dereferenceable(16) %1) #0 comdat align 2 {
  %3 = alloca ptr, align 8
  %4 = alloca ptr, align 8
  store ptr %0, ptr %3, align 8
  store ptr %1, ptr %4, align 8
  %5 = load ptr, ptr %3, align 8
  %6 = getelementptr inbounds nuw %"class.llvm::object::BasicSymbolRef", ptr %5, i32 0, i32 0
  %7 = load ptr, ptr %4, align 8
  %8 = getelementptr inbounds nuw %"class.llvm::object::BasicSymbolRef", ptr %7, i32 0, i32 0
  %9 = call noundef zeroext i1 @_ZN4llvm6objecteqERKNS0_11DataRefImplES3_(ptr noundef nonnull align 8 dereferenceable(8) %6, ptr noundef nonnull align 8 dereferenceable(8) %8)
  ret i1 %9
}

; Function Attrs: mustprogress nounwind uwtable
define linkonce_odr hidden void @_ZN4llvm14iterator_rangeINS_6object15symbol_iteratorEEC2ES2_S2_(ptr noundef nonnull align 8 dereferenceable(32) %0, i64 %1, ptr %2, i64 %3, ptr %4) unnamed_addr #0 comdat align 2 {
  %6 = alloca %"class.llvm::object::symbol_iterator", align 8
  %7 = alloca %"class.llvm::object::symbol_iterator", align 8
  %8 = alloca ptr, align 8
  %9 = getelementptr inbounds nuw { i64, ptr }, ptr %6, i32 0, i32 0
  store i64 %1, ptr %9, align 8
  %10 = getelementptr inbounds nuw { i64, ptr }, ptr %6, i32 0, i32 1
  store ptr %2, ptr %10, align 8
  %11 = getelementptr inbounds nuw { i64, ptr }, ptr %7, i32 0, i32 0
  store i64 %3, ptr %11, align 8
  %12 = getelementptr inbounds nuw { i64, ptr }, ptr %7, i32 0, i32 1
  store ptr %4, ptr %12, align 8
  store ptr %0, ptr %8, align 8
  %13 = load ptr, ptr %8, align 8
  %14 = getelementptr inbounds nuw %"class.llvm::iterator_range.28", ptr %13, i32 0, i32 0
  call void @llvm.memcpy.p0.p0.i64(ptr align 8 %14, ptr align 8 %6, i64 16, i1 false)
  %15 = getelementptr inbounds nuw %"class.llvm::iterator_range.28", ptr %13, i32 0, i32 1
  call void @llvm.memcpy.p0.p0.i64(ptr align 8 %15, ptr align 8 %7, i64 16, i1 false)
  ret void
}

; Function Attrs: mustprogress nounwind uwtable
define linkonce_odr hidden void @_ZN4llvm6object15symbol_iteratorC2ERKNS0_16content_iteratorINS0_14BasicSymbolRefEEE(ptr noundef nonnull align 8 dereferenceable(16) %0, ptr noundef nonnull align 8 dereferenceable(16) %1) unnamed_addr #0 comdat align 2 {
  %3 = alloca ptr, align 8
  %4 = alloca ptr, align 8
  %5 = alloca %"class.llvm::object::BasicSymbolRef", align 8
  %6 = alloca %"class.llvm::object::SymbolRef", align 8
  %7 = alloca %"union.llvm::object::DataRefImpl", align 8
  store ptr %0, ptr %3, align 8
  store ptr %1, ptr %4, align 8
  %8 = load ptr, ptr %3, align 8
  %9 = load ptr, ptr %4, align 8
  %10 = call noundef ptr @_ZNK4llvm6object16content_iteratorINS0_14BasicSymbolRefEEptEv(ptr noundef nonnull align 8 dereferenceable(16) %9)
  %11 = call i64 @_ZNK4llvm6object14BasicSymbolRef17getRawDataRefImplEv(ptr noundef nonnull align 8 dereferenceable(16) %10)
  %12 = getelementptr inbounds nuw %"union.llvm::object::DataRefImpl", ptr %7, i32 0, i32 0
  store i64 %11, ptr %12, align 8
  %13 = load ptr, ptr %4, align 8
  %14 = call noundef ptr @_ZNK4llvm6object16content_iteratorINS0_14BasicSymbolRefEEptEv(ptr noundef nonnull align 8 dereferenceable(16) %13)
  %15 = call noundef ptr @_ZNK4llvm6object14BasicSymbolRef9getObjectEv(ptr noundef nonnull align 8 dereferenceable(16) %14)
  %16 = call noundef ptr @_ZN4llvm4castINS_6object10ObjectFileEKNS1_12SymbolicFileEEEDcPT0_(ptr noundef %15)
  %17 = getelementptr inbounds nuw %"union.llvm::object::DataRefImpl", ptr %7, i32 0, i32 0
  %18 = load i64, ptr %17, align 8
  call void @_ZN4llvm6object9SymbolRefC2ENS0_11DataRefImplEPKNS0_10ObjectFileE(ptr noundef nonnull align 8 dereferenceable(16) %6, i64 %18, ptr noundef %16)
  call void @llvm.memcpy.p0.p0.i64(ptr align 8 %5, ptr align 8 %6, i64 16, i1 false)
  %19 = getelementptr inbounds nuw { i64, ptr }, ptr %5, i32 0, i32 0
  %20 = load i64, ptr %19, align 8
  %21 = getelementptr inbounds nuw { i64, ptr }, ptr %5, i32 0, i32 1
  %22 = load ptr, ptr %21, align 8
  call void @_ZN4llvm6object16content_iteratorINS0_14BasicSymbolRefEEC2ES2_(ptr noundef nonnull align 8 dereferenceable(16) %8, i64 %20, ptr %22)
  ret void
}

; Function Attrs: mustprogress nounwind uwtable
define linkonce_odr hidden noundef ptr @_ZN4llvm8CastInfoINS_6object10ObjectFileEPNS1_6BinaryEvE6doCastERKS4_(ptr noundef nonnull align 8 dereferenceable(8) %0) #0 comdat align 2 {
  %2 = alloca ptr, align 8
  store ptr %0, ptr %2, align 8
  %3 = load ptr, ptr %2, align 8
  %4 = load ptr, ptr %3, align 8
  %5 = call noundef ptr @_ZN4llvm16cast_convert_valINS_6object10ObjectFileEPNS1_6BinaryES4_E4doitEPKS3_(ptr noundef %4)
  ret ptr %5
}

; Function Attrs: mustprogress nounwind uwtable
define linkonce_odr hidden noundef ptr @_Z4wrapPKN4llvm6object15symbol_iteratorE(ptr noundef %0) #0 comdat {
  %2 = alloca ptr, align 8
  store ptr %0, ptr %2, align 8
  %3 = load ptr, ptr %2, align 8
  ret ptr %3
}

; Function Attrs: mustprogress nounwind uwtable
define linkonce_odr hidden noundef zeroext i1 @_ZNK4llvm6object16content_iteratorINS0_14BasicSymbolRefEEeqERKS3_(ptr noundef nonnull align 8 dereferenceable(16) %0, ptr noundef nonnull align 8 dereferenceable(16) %1) #0 comdat align 2 {
  %3 = alloca ptr, align 8
  %4 = alloca ptr, align 8
  store ptr %0, ptr %3, align 8
  store ptr %1, ptr %4, align 8
  %5 = load ptr, ptr %3, align 8
  %6 = getelementptr inbounds nuw %"class.llvm::object::content_iterator.29", ptr %5, i32 0, i32 0
  %7 = load ptr, ptr %4, align 8
  %8 = getelementptr inbounds nuw %"class.llvm::object::content_iterator.29", ptr %7, i32 0, i32 0
  %9 = call noundef zeroext i1 @_ZNK4llvm6object14BasicSymbolRefeqERKS1_(ptr noundef nonnull align 8 dereferenceable(16) %6, ptr noundef nonnull align 8 dereferenceable(16) %8)
  ret i1 %9
}

; Function Attrs: mustprogress nounwind uwtable
define linkonce_odr hidden { i64, ptr } @_ZNK4llvm14iterator_rangeINS_6object15symbol_iteratorEE3endEv(ptr noundef nonnull align 8 dereferenceable(32) %0) #0 comdat align 2 {
  %2 = alloca %"class.llvm::object::symbol_iterator", align 8
  %3 = alloca ptr, align 8
  store ptr %0, ptr %3, align 8
  %4 = load ptr, ptr %3, align 8
  %5 = getelementptr inbounds nuw %"class.llvm::iterator_range.28", ptr %4, i32 0, i32 1
  call void @llvm.memcpy.p0.p0.i64(ptr align 8 %2, ptr align 8 %5, i64 16, i1 false)
  %6 = getelementptr inbounds nuw %"class.llvm::object::symbol_iterator", ptr %2, i32 0, i32 0
  %7 = getelementptr inbounds nuw %"class.llvm::object::content_iterator.29", ptr %6, i32 0, i32 0
  %8 = load { i64, ptr }, ptr %7, align 8
  ret { i64, ptr } %8
}

; Function Attrs: mustprogress nounwind uwtable
define linkonce_odr hidden { i64, ptr } @_ZNK4llvm14iterator_rangeINS_6object15symbol_iteratorEE5beginEv(ptr noundef nonnull align 8 dereferenceable(32) %0) #0 comdat align 2 {
  %2 = alloca %"class.llvm::object::symbol_iterator", align 8
  %3 = alloca ptr, align 8
  store ptr %0, ptr %3, align 8
  %4 = load ptr, ptr %3, align 8
  %5 = getelementptr inbounds nuw %"class.llvm::iterator_range.28", ptr %4, i32 0, i32 0
  call void @llvm.memcpy.p0.p0.i64(ptr align 8 %2, ptr align 8 %5, i64 16, i1 false)
  %6 = getelementptr inbounds nuw %"class.llvm::object::symbol_iterator", ptr %2, i32 0, i32 0
  %7 = getelementptr inbounds nuw %"class.llvm::object::content_iterator.29", ptr %6, i32 0, i32 0
  %8 = load { i64, ptr }, ptr %7, align 8
  ret { i64, ptr } %8
}

; Function Attrs: mustprogress nounwind uwtable
define linkonce_odr hidden void @_ZNK4llvm6object10ObjectFile7symbolsEv(ptr dead_on_unwind noalias writable sret(%"class.llvm::iterator_range.28") align 8 %0, ptr noundef nonnull align 8 dereferenceable(48) %1) #0 comdat align 2 {
  %3 = alloca ptr, align 8
  %4 = alloca %"class.llvm::object::symbol_iterator", align 8
  %5 = alloca %"class.llvm::object::content_iterator.29", align 8
  %6 = alloca %"class.llvm::object::symbol_iterator", align 8
  %7 = alloca %"class.llvm::object::content_iterator.29", align 8
  store ptr %1, ptr %3, align 8
  %8 = load ptr, ptr %3, align 8
  %9 = load ptr, ptr %8, align 8
  %10 = getelementptr inbounds ptr, ptr %9, i64 6
  %11 = load ptr, ptr %10, align 8
  %12 = call { i64, ptr } %11(ptr noundef nonnull align 8 dereferenceable(48) %8)
  %13 = getelementptr inbounds nuw %"class.llvm::object::content_iterator.29", ptr %5, i32 0, i32 0
  %14 = getelementptr inbounds nuw { i64, ptr }, ptr %13, i32 0, i32 0
  %15 = extractvalue { i64, ptr } %12, 0
  store i64 %15, ptr %14, align 8
  %16 = getelementptr inbounds nuw { i64, ptr }, ptr %13, i32 0, i32 1
  %17 = extractvalue { i64, ptr } %12, 1
  store ptr %17, ptr %16, align 8
  call void @_ZN4llvm6object15symbol_iteratorC2ERKNS0_16content_iteratorINS0_14BasicSymbolRefEEE(ptr noundef nonnull align 8 dereferenceable(16) %4, ptr noundef nonnull align 8 dereferenceable(16) %5)
  %18 = load ptr, ptr %8, align 8
  %19 = getelementptr inbounds ptr, ptr %18, i64 7
  %20 = load ptr, ptr %19, align 8
  %21 = call { i64, ptr } %20(ptr noundef nonnull align 8 dereferenceable(48) %8)
  %22 = getelementptr inbounds nuw %"class.llvm::object::content_iterator.29", ptr %7, i32 0, i32 0
  %23 = getelementptr inbounds nuw { i64, ptr }, ptr %22, i32 0, i32 0
  %24 = extractvalue { i64, ptr } %21, 0
  store i64 %24, ptr %23, align 8
  %25 = getelementptr inbounds nuw { i64, ptr }, ptr %22, i32 0, i32 1
  %26 = extractvalue { i64, ptr } %21, 1
  store ptr %26, ptr %25, align 8
  call void @_ZN4llvm6object15symbol_iteratorC2ERKNS0_16content_iteratorINS0_14BasicSymbolRefEEE(ptr noundef nonnull align 8 dereferenceable(16) %6, ptr noundef nonnull align 8 dereferenceable(16) %7)
  %27 = getelementptr inbounds nuw { i64, ptr }, ptr %4, i32 0, i32 0
  %28 = load i64, ptr %27, align 8
  %29 = getelementptr inbounds nuw { i64, ptr }, ptr %4, i32 0, i32 1
  %30 = load ptr, ptr %29, align 8
  %31 = getelementptr inbounds nuw { i64, ptr }, ptr %6, i32 0, i32 0
  %32 = load i64, ptr %31, align 8
  %33 = getelementptr inbounds nuw { i64, ptr }, ptr %6, i32 0, i32 1
  %34 = load ptr, ptr %33, align 8
  call void @_ZN4llvm14iterator_rangeINS_6object15symbol_iteratorEEC2ES2_S2_(ptr noundef nonnull align 8 dereferenceable(32) %0, i64 %28, ptr %30, i64 %32, ptr %34)
  ret void
}

; Function Attrs: mustprogress nounwind uwtable
define linkonce_odr hidden noundef ptr @_ZN4llvm4castINS_6object10ObjectFileENS1_6BinaryEEEDcPT0_(ptr noundef %0) #0 comdat {
  %2 = alloca ptr, align 8
  store ptr %0, ptr %2, align 8
  %3 = call noundef ptr @_ZN4llvm8CastInfoINS_6object10ObjectFileEPNS1_6BinaryEvE6doCastERKS4_(ptr noundef nonnull align 8 dereferenceable(8) %2)
  ret ptr %3
}

; Function Attrs: mustprogress nounwind uwtable
define linkonce_odr hidden noundef ptr @_ZN4llvm6object6unwrapEP16LLVMOpaqueBinary(ptr noundef %0) #0 comdat {
  %2 = alloca ptr, align 8
  store ptr %0, ptr %2, align 8
  %3 = load ptr, ptr %2, align 8
  ret ptr %3
}

; Function Attrs: mustprogress nounwind uwtable
define dso_local ptr @LLVMObjectFileCopySymbolIterator(ptr noundef %0) #0 {
  %2 = alloca ptr, align 8
  %3 = alloca ptr, align 8
  %4 = alloca ptr, align 8
  %5 = alloca %"class.llvm::iterator_range.28", align 8
  %6 = alloca %"class.llvm::object::symbol_iterator", align 8
  %7 = alloca %"class.llvm::object::symbol_iterator", align 8
  store ptr %0, ptr %3, align 8
  %8 = load ptr, ptr %3, align 8
  %9 = call noundef ptr @_ZN4llvm6object6unwrapEP16LLVMOpaqueBinary(ptr noundef %8)
  %10 = call noundef ptr @_ZN4llvm4castINS_6object10ObjectFileENS1_6BinaryEEEDcPT0_(ptr noundef %9)
  store ptr %10, ptr %4, align 8
  %11 = load ptr, ptr %4, align 8
  call void @_ZNK4llvm6object10ObjectFile7symbolsEv(ptr dead_on_unwind writable sret(%"class.llvm::iterator_range.28") align 8 %5, ptr noundef nonnull align 8 dereferenceable(48) %11)
  %12 = call { i64, ptr } @_ZNK4llvm14iterator_rangeINS_6object15symbol_iteratorEE5beginEv(ptr noundef nonnull align 8 dereferenceable(32) %5)
  %13 = getelementptr inbounds nuw %"class.llvm::object::symbol_iterator", ptr %6, i32 0, i32 0
  %14 = getelementptr inbounds nuw %"class.llvm::object::content_iterator.29", ptr %13, i32 0, i32 0
  %15 = getelementptr inbounds nuw { i64, ptr }, ptr %14, i32 0, i32 0
  %16 = extractvalue { i64, ptr } %12, 0
  store i64 %16, ptr %15, align 8
  %17 = getelementptr inbounds nuw { i64, ptr }, ptr %14, i32 0, i32 1
  %18 = extractvalue { i64, ptr } %12, 1
  store ptr %18, ptr %17, align 8
  %19 = call { i64, ptr } @_ZNK4llvm14iterator_rangeINS_6object15symbol_iteratorEE3endEv(ptr noundef nonnull align 8 dereferenceable(32) %5)
  %20 = getelementptr inbounds nuw %"class.llvm::object::symbol_iterator", ptr %7, i32 0, i32 0
  %21 = getelementptr inbounds nuw %"class.llvm::object::content_iterator.29", ptr %20, i32 0, i32 0
  %22 = getelementptr inbounds nuw { i64, ptr }, ptr %21, i32 0, i32 0
  %23 = extractvalue { i64, ptr } %19, 0
  store i64 %23, ptr %22, align 8
  %24 = getelementptr inbounds nuw { i64, ptr }, ptr %21, i32 0, i32 1
  %25 = extractvalue { i64, ptr } %19, 1
  store ptr %25, ptr %24, align 8
  %26 = call noundef zeroext i1 @_ZNK4llvm6object16content_iteratorINS0_14BasicSymbolRefEEeqERKS3_(ptr noundef nonnull align 8 dereferenceable(16) %6, ptr noundef nonnull align 8 dereferenceable(16) %7)
  br i1 %26, label %27, label %28

27:                                               ; preds = %1
  store ptr null, ptr %2, align 8
  br label %38

28:                                               ; preds = %1
  %29 = call noalias noundef nonnull ptr @_Znwm(i64 noundef 16) #12
  %30 = call { i64, ptr } @_ZNK4llvm14iterator_rangeINS_6object15symbol_iteratorEE5beginEv(ptr noundef nonnull align 8 dereferenceable(32) %5)
  %31 = getelementptr inbounds nuw %"class.llvm::object::symbol_iterator", ptr %29, i32 0, i32 0
  %32 = getelementptr inbounds nuw %"class.llvm::object::content_iterator.29", ptr %31, i32 0, i32 0
  %33 = getelementptr inbounds nuw { i64, ptr }, ptr %32, i32 0, i32 0
  %34 = extractvalue { i64, ptr } %30, 0
  store i64 %34, ptr %33, align 16
  %35 = getelementptr inbounds nuw { i64, ptr }, ptr %32, i32 0, i32 1
  %36 = extractvalue { i64, ptr } %30, 1
  store ptr %36, ptr %35, align 8
  %37 = call noundef ptr @_Z4wrapPKN4llvm6object15symbol_iteratorE(ptr noundef %29)
  store ptr %37, ptr %2, align 8
  br label %38

38:                                               ; preds = %28, %27
  %39 = load ptr, ptr %2, align 8
  ret ptr %39
}