; Function Attrs: mustprogress nounwind uwtable
define dso_local noundef ptr @LLVMObjectFileCopySymbolIterator(ptr noundef %0) local_unnamed_addr #0 {
  %2 = load ptr, ptr %0, align 8, !noalias !13
  %3 = getelementptr inbounds i8, ptr %2, i64 48
  %4 = load ptr, ptr %3, align 8, !noalias !13
  %5 = tail call { i64, ptr } %4(ptr noundef nonnull align 8 dereferenceable(48) %0) #17, !noalias !13
  %6 = extractvalue { i64, ptr } %5, 0
  %7 = load ptr, ptr %0, align 8, !noalias !13
  %8 = getelementptr inbounds i8, ptr %7, i64 56
  %9 = load ptr, ptr %8, align 8, !noalias !13
  %10 = tail call { i64, ptr } %9(ptr noundef nonnull align 8 dereferenceable(48) %0) #17, !noalias !13
  %11 = extractvalue { i64, ptr } %10, 0
  %.not.i.i.i = icmp eq i64 %6, %11
  br i1 %.not.i.i.i, label %16, label %12

12:                                               ; preds = %1
  %13 = extractvalue { i64, ptr } %5, 1
  %14 = tail call noalias noundef nonnull dereferenceable(16) ptr @_Znwm(i64 noundef 16) #18
  store i64 %6, ptr %14, align 16
  %15 = getelementptr inbounds nuw i8, ptr %14, i64 8
  store ptr %13, ptr %15, align 8
  br label %16

16:                                               ; preds = %1, %12
  %.0 = phi ptr [ %14, %12 ], [ null, %1 ]
  ret ptr %.0
}